target datalayout = "e-m:e-p270:32:32-p271:32:32-p272:64:64-i64:64-i128:128-f80:128-n8:16:32:64-S128"
target triple = "x86_64-pc-linux-gnu"

%struct.BackendGlobalData = type <{ ptr, ptr, i8, i8, i8, i8, i8, i8, i8, i8, i8, [3 x i8], i32, ptr, ptr, ptr, ptr, ptr, ptr, ptr, ptr, ptr, ptr, ptr, ptr, ptr, i32, %struct.jvmtiCapabilities, i8, [3 x i8], %struct.jvmtiEventCallbacks, ptr, ptr, ptr, ptr, ptr, ptr, ptr, i32, [4 x i8], ptr, i64, i32, [4 x i8], ptr, i32, i32, i8, i8, [6 x i8] }>
%struct.jvmtiCapabilities = type { i64, i64 }
%struct.jvmtiEventCallbacks = type { ptr, ptr, ptr, ptr, ptr, ptr, ptr, ptr, ptr, ptr, ptr, ptr, ptr, ptr, ptr, ptr, ptr, ptr, ptr, ptr, ptr, ptr, ptr, ptr, ptr, ptr, ptr, ptr, ptr, ptr, ptr, ptr, ptr, ptr, ptr, ptr, ptr, ptr, ptr }

@gdata = external global ptr, align 8

; Function Attrs: nounwind uwtable
define hidden void @commonRef_release(ptr noundef %0, i64 noundef %1) #0 {
  %3 = alloca ptr, align 8
  %4 = alloca i64, align 8
  store ptr %0, ptr %3, align 8
  store i64 %1, ptr %4, align 8
  %5 = load ptr, ptr @gdata, align 8
  %6 = getelementptr inbounds %struct.BackendGlobalData, ptr %5, i32 0, i32 40
  %7 = load ptr, ptr %6, align 8
  call void @debugMonitorEnter(ptr noundef %7)
  %8 = load ptr, ptr %3, align 8
  %9 = load i64, ptr %4, align 8
  call void @deleteNodeByID(ptr noundef %8, i64 noundef %9, i32 noundef 1)
  %10 = load ptr, ptr @gdata, align 8
  %11 = getelementptr inbounds %struct.BackendGlobalData, ptr %10, i32 0, i32 40
  %12 = load ptr, ptr %11, align 8
  call void @debugMonitorExit(ptr noundef %12)
  ret void
}