; Function Attrs: nounwind uwtable
define hidden void @commonRef_release(ptr noundef %0, i64 noundef %1) local_unnamed_addr #0 {
  %3 = load ptr, ptr @gdata, align 8
  %4 = getelementptr inbounds i8, ptr %3, i64 536
  %5 = load ptr, ptr %4, align 8
  tail call void @debugMonitorEnter(ptr noundef %5) #5
  tail call fastcc void @deleteNodeByID(ptr noundef %0, i64 noundef %1, i32 noundef 1)
  %6 = load ptr, ptr @gdata, align 8
  %7 = getelementptr inbounds i8, ptr %6, i64 536
  %8 = load ptr, ptr %7, align 8
  tail call void @debugMonitorExit(ptr noundef %8) #5
  ret void
}